; Function Attrs: nounwind uwtable
define internal zeroext i1 @contain_dml_walker(ptr noundef %0, ptr noundef %1) #0 {
  %3 = icmp eq ptr %0, null
  br i1 %3, label %17, label %4

4:                                                ; preds = %2
  %5 = load i32, ptr %0, align 4
  %6 = icmp eq i32 %5, 67
  br i1 %6, label %7, label %15

7:                                                ; preds = %4
  %8 = getelementptr inbounds nuw i8, ptr %0, i64 4
  %9 = load i32, ptr %8, align 4
  %.not = icmp eq i32 %9, 1
  br i1 %.not, label %10, label %17

10:                                               ; preds = %7
  %11 = getelementptr inbounds nuw i8, ptr %0, i64 240
  %12 = load ptr, ptr %11, align 8
  %.not11 = icmp eq ptr %12, null
  br i1 %.not11, label %13, label %17

13:                                               ; preds = %10
  %14 = tail call zeroext i1 @query_tree_walker_impl(ptr noundef nonnull %0, ptr noundef nonnull @contain_dml_walker, ptr noundef %1, i32 noundef 0) #10
  br label %17

15:                                               ; preds = %4
  %16 = tail call zeroext i1 @expression_tree_walker_impl(ptr noundef nonnull %0, ptr noundef nonnull @contain_dml_walker, ptr noundef %1) #10
  br label %17

17:                                               ; preds = %13, %10, %7, %2, %15
  %.0 = phi i1 [ %16, %15 ], [ false, %2 ], [ %14, %13 ], [ true, %10 ], [ true, %7 ]
  ret i1 %.0
}